(lp1
(lp2
F0.64000000000000001
aF1.0900000000000001
aF13.43
aF0.23999999999999999
aF14.08
aF0.92000000000000004
aF13.779999999999999
aF0.17999999999999999
aF0.65000000000000002
aa(lp3
F0.77000000000000002
aF0.76000000000000001
aF11.119999999999999
aF0.14999999999999999
aF11.85
aF0.56000000000000005
aF11.210000000000001
aF0.080000000000000002
aF0.29999999999999999
aa(lp4
F0.89000000000000001
aF0.59999999999999998
aF9.4390000000000001
aF0.13
aF10.1
aF0.42999999999999999
aF9.5190000000000001
aF0.059999999999999998
aF0.17000000000000001
aa(lp5
F1.02
aF0.47999999999999998
aF8.2449999999999992
aF0.089999999999999997
aF8.8279999999999994
aF0.34999999999999998
aF8.1449999999999996
aF0.040000000000000001
aF0.10000000000000001
aa(lp6
F1.1399999999999999
aF0.35999999999999999
aF7.2169999999999996
aF0.040000000000000001
aF7.7949999999999999
aF0.27000000000000002
aF7.1500000000000004
aF0.029999999999999999
aF0.070000000000000007
aa(lp7
F1.26
aF0.32000000000000001
aF6.4210000000000003
aF0.040000000000000001
aF6.992
aF0.22
aF6.3499999999999996
aF0.02
aF0.050000000000000003
aa(lp8
F1.3899999999999999
aF0.29999999999999999
aF5.7679999999999998
aF0.040000000000000001
aF6.3120000000000003
aF0.17000000000000001
aF5.6630000000000003
aF0.02
aF0.029999999999999999
aa(lp9
F1.51
aF0.26000000000000001
aF5.1799999999999997
aF0.040000000000000001
aF5.7270000000000003
aF0.16
aF5.0830000000000002
aF0.02
aF0.025000000000000001
aa(lp10
F1.6399999999999999
aF0.23999999999999999
aF4.665
aF0.029999999999999999
aF5.242
aF0.14000000000000001
aF4.5419999999999998
aF0.02
aF0.014999999999999999
aa(lp11
F1.76
aF0.20999999999999999
aF4.2050000000000001
aF0.040000000000000001
aF4.8380000000000001
aF0.13
aF4.1029999999999998
aF0.02
aF0.01
aa(lp12
F1.8799999999999999
aF0.22
aF3.7469999999999999
aF0.050000000000000003
aF4.4829999999999997
aF0.14000000000000001
aF3.6970000000000001
aF0.02
aF0.0070000000000000001
aa(lp13
F2.0099999999999998
aF0.29999999999999999
aF3.2050000000000001
aF0.059999999999999998
aF4.1520000000000001
aF0.20999999999999999
aF3.2719999999999998
aF0.02
aF0.0070000000000000001
aa(lp14
F2.1299999999999999
aF0.69999999999999996
aF2.7040000000000002
aF0.050000000000000003
aF3.8580000000000001
aF0.28999999999999998
aF2.863
aF0.02
aF0.0070000000000000001
aa(lp15
F2.2599999999999998
aF1.02
aF2.577
aF0.059999999999999998
aF3.5859999999999999
aF0.42999999999999999
aF2.4550000000000001
aF0.02
aF0.0070000000000000001
aa(lp16
F2.3799999999999999
aF1.1799999999999999
aF2.6080000000000001
aF0.050000000000000003
aF3.3239999999999998
aF0.62
aF2.081
aF0.02
aF0.0070000000000000001
aa(lp17
F2.5
aF1.22
aF2.5640000000000001
aF0.050000000000000003
aF3.093
aF1.04
aF1.833
aF0.02
aF0.0070000000000000001
aa(lp18
F2.6299999999999999
aF1.25
aF2.4830000000000001
aF0.050000000000000003
aF2.8690000000000002
aF1.3100000000000001
aF1.849
aF0.02
aF0.0070000000000000001
aa(lp19
F2.75
aF1.24
aF2.3969999999999998
aF0.040000000000000001
aF2.657
aF1.3799999999999999
aF1.9139999999999999
aF0.02
aF0.0070000000000000001
aa(lp20
F2.8799999999999999
aF1.25
aF2.3050000000000002
aF0.040000000000000001
aF2.4620000000000002
aF1.45
aF1.948
aF0.02
aF0.0070000000000000001
aa(lp21
F3
aF1.28
aF2.2069999999999999
aF0.050000000000000003
aF2.2749999999999999
aF1.46
aF1.958
aF0.02
aF0.0070000000000000001
aa(lp22
F3.1200000000000001
aF1.3200000000000001
aF2.1160000000000001
aF0.050000000000000003
aF2.0699999999999998
aF1.47
aF1.952
aF0.02
aF0.0070000000000000001
aa(lp23
F3.25
aF1.3300000000000001
aF2.0449999999999999
aF0.050000000000000003
aF1.8640000000000001
aF1.46
aF1.9330000000000001
aF0.02
aF0.0070000000000000001
aa(lp24
F3.3700000000000001
aF1.3600000000000001
aF1.9750000000000001
aF0.070000000000000007
aF1.657
aF1.48
aF1.895
aF0.02
aF0.0070000000000000001
aa(lp25
F3.5
aF1.3700000000000001
aF1.9159999999999999
aF0.10000000000000001
aF1.419
aF1.5
aF1.8660000000000001
aF0.02
aF0.0070000000000000001
aa(lp26
F3.6200000000000001
aF1.3600000000000001
aF1.8640000000000001
aF0.14000000000000001
aF1.1419999999999999
aF1.48
aF1.871
aF0.02
aF0.0070000000000000001
aa(lp27
F3.7400000000000002
aF1.3400000000000001
aF1.821
aF0.17000000000000001
aF0.82899999999999996
aF1.48
aF1.883
aF0.02
aF0.0070000000000000001
aa(lp28
F3.8700000000000001
aF1.3799999999999999
aF1.7829999999999999
aF0.81000000000000005
aF0.39200000000000002
aF1.54
aF1.8979999999999999
aF0.02
aF0.0070000000000000001
aa(lp29
F3.9900000000000002
aF1.3799999999999999
aF1.7290000000000001
aF1.1299999999999999
aF0.61599999999999999
aF1.53
aF1.893
aF0.02
aF0.0070000000000000001
aa(lp30
F4.1200000000000001
aF1.3999999999999999
aF1.679
aF1.3400000000000001
aF0.96399999999999997
aF1.53
aF1.889
aF0.02
aF0.0070000000000000001
aa.